; Function Attrs: mustprogress uwtable
define hidden void @_ZN4cvc58internal6theory9datatypes5utils11getSelectorENS0_8TypeNodeERKNS0_16DTypeConstructorEmb(ptr dead_on_unwind noalias writable sret(%"class.cvc5::internal::NodeTemplate") align 8 %0, ptr noundef readonly captures(none) %1, ptr noundef nonnull align 8 dereferenceable(264) %2, i64 noundef %3, i1 noundef zeroext %4) local_unnamed_addr #3 personality ptr @__gxx_personality_v0 {
  %6 = alloca %"class.cvc5::internal::TypeNode", align 8
  br i1 %4, label %7, label %23

7:                                                ; preds = %5
  %8 = load ptr, ptr %1, align 8, !tbaa !3
  store ptr %8, ptr %6, align 8, !tbaa !3
  %9 = load i64, ptr %8, align 8
  %10 = lshr i64 %9, 40
  %11 = trunc nuw nsw i64 %10 to i32
  %12 = and i32 %11, 1048575
  %13 = icmp samesign ult i32 %12, 1048574
  br i1 %13, label %14, label %19, !prof !9

14:                                               ; preds = %7
  %15 = add i64 %9, 1099511627776
  %16 = and i64 %15, 1152920405095219200
  %17 = and i64 %9, -1152920405095219201
  %18 = or disjoint i64 %16, %17
  store i64 %18, ptr %8, align 8
  br label %_ZN4cvc58internal8TypeNodeC2ERKS1_.exit

19:                                               ; preds = %7
  %20 = icmp eq i32 %12, 1048574
  br i1 %20, label %21, label %_ZN4cvc58internal8TypeNodeC2ERKS1_.exit, !prof !10

21:                                               ; preds = %19
  %22 = or i64 %9, 1152920405095219200
  store i64 %22, ptr %8, align 8
  tail call void @_ZN4cvc58internal4expr9NodeValue20markRefCountMaxedOutEv(ptr noundef nonnull align 8 dereferenceable(24) %8)
  br label %_ZN4cvc58internal8TypeNodeC2ERKS1_.exit

_ZN4cvc58internal8TypeNodeC2ERKS1_.exit:          ; preds = %14, %19, %21
  invoke void @_ZNK4cvc58internal16DTypeConstructor17getSharedSelectorENS0_8TypeNodeEm(ptr dead_on_unwind writable sret(%"class.cvc5::internal::NodeTemplate") align 8 %0, ptr noundef nonnull align 8 dereferenceable(264) %2, ptr noundef nonnull %6, i64 noundef %3)
          to label %24 unwind label %38

23:                                               ; preds = %5
  tail call void @_ZNK4cvc58internal16DTypeConstructor11getSelectorEm(ptr dead_on_unwind writable sret(%"class.cvc5::internal::NodeTemplate") align 8 %0, ptr noundef nonnull align 8 dereferenceable(264) %2, i64 noundef %3)
  br label %_ZN4cvc58internal8TypeNodeD2Ev.exit

24:                                               ; preds = %_ZN4cvc58internal8TypeNodeC2ERKS1_.exit
  %25 = load ptr, ptr %6, align 8, !tbaa !3
  %26 = load i64, ptr %25, align 8
  %27 = and i64 %26, 1152920405095219200
  %.not.i.i = icmp eq i64 %27, 1152920405095219200
  br i1 %.not.i.i, label %_ZN4cvc58internal8TypeNodeD2Ev.exit, label %28, !prof !10

28:                                               ; preds = %24
  %29 = add i64 %26, 1152920405095219200
  %30 = and i64 %29, 1152920405095219200
  %31 = and i64 %26, -1152920405095219201
  %32 = or disjoint i64 %30, %31
  store i64 %32, ptr %25, align 8
  %33 = icmp eq i64 %30, 0
  br i1 %33, label %34, label %_ZN4cvc58internal8TypeNodeD2Ev.exit, !prof !10

34:                                               ; preds = %28
  invoke void @_ZN4cvc58internal4expr9NodeValue15markForDeletionEv(ptr noundef nonnull align 8 dereferenceable(24) %25)
          to label %_ZN4cvc58internal8TypeNodeD2Ev.exit unwind label %35

35:                                               ; preds = %34
  %36 = landingpad { ptr, i32 }
          catch ptr null
  %37 = extractvalue { ptr, i32 } %36, 0
  call void @__clang_call_terminate(ptr %37) #21
  unreachable

_ZN4cvc58internal8TypeNodeD2Ev.exit:              ; preds = %23, %34, %28, %24
  ret void

38:                                               ; preds = %_ZN4cvc58internal8TypeNodeC2ERKS1_.exit
  %39 = landingpad { ptr, i32 }
          cleanup
  call void @_ZN4cvc58internal8TypeNodeD2Ev(ptr noundef nonnull align 8 dereferenceable(8) %6) #22
  resume { ptr, i32 } %39
}